target datalayout = "e-m:e-p270:32:32-p271:32:32-p272:64:64-i64:64-i128:128-f80:128-n8:16:32:64-S128"
target triple = "x86_64-pc-linux-gnu"

%struct.option = type { i32, i32, ptr, ptr, ptr, ptr, i32, ptr, i64, ptr, i64, ptr }

@.str.35 = private unnamed_addr constant [21 x i8] c"builtin/merge-file.c\00", align 1
@.str.36 = private unnamed_addr constant [41 x i8] c"option callback does not expect negation\00", align 1
@label_cb.label_count = internal global i32 0, align 4
@.str.38 = private unnamed_addr constant [36 x i8] c"too many labels on the command line\00", align 1

; Function Attrs: inlinehint nounwind uwtable
define internal i32 @const_error() #3 {
  ret i32 -1
}

; Function Attrs: nounwind uwtable
define internal i32 @label_cb(ptr noundef %0, ptr noundef %1, i32 noundef %2) #0 {
  %4 = alloca i32, align 4
  %5 = alloca ptr, align 8
  %6 = alloca ptr, align 8
  %7 = alloca i32, align 4
  %8 = alloca ptr, align 8
  %9 = alloca i32, align 4
  store ptr %0, ptr %5, align 8, !tbaa !76
  store ptr %1, ptr %6, align 8, !tbaa !11
  store i32 %2, ptr %7, align 4, !tbaa !4
  call void @llvm.lifetime.start.p0(i64 8, ptr %8) #9
  %10 = load ptr, ptr %5, align 8, !tbaa !76
  %11 = getelementptr inbounds nuw %struct.option, ptr %10, i32 0, i32 3
  %12 = load ptr, ptr %11, align 8, !tbaa !20
  store ptr %12, ptr %8, align 8, !tbaa !8
  br label %13

13:                                               ; preds = %3
  %14 = load i32, ptr %7, align 4, !tbaa !4
  %15 = icmp ne i32 %14, 0
  br i1 %15, label %16, label %17

16:                                               ; preds = %13
  call void (ptr, i32, ptr, ...) @BUG_fl(ptr noundef @.str.35, i32 noundef 27, ptr noundef @.str.36) #10
  unreachable

17:                                               ; preds = %13
  br label %18

18:                                               ; preds = %17
  br label %19

19:                                               ; preds = %18
  %20 = load i32, ptr @label_cb.label_count, align 4, !tbaa !4
  %21 = icmp sge i32 %20, 3
  br i1 %21, label %22, label %25

22:                                               ; preds = %19
  %23 = call i32 (ptr, ...) @error(ptr noundef @.str.38)
  %24 = call i32 @const_error()
  store i32 %24, ptr %4, align 4
  store i32 1, ptr %9, align 4
  br label %32

25:                                               ; preds = %19
  %26 = load ptr, ptr %6, align 8, !tbaa !11
  %27 = load ptr, ptr %8, align 8, !tbaa !8
  %28 = load i32, ptr @label_cb.label_count, align 4, !tbaa !4
  %29 = add nsw i32 %28, 1
  store i32 %29, ptr @label_cb.label_count, align 4, !tbaa !4
  %30 = sext i32 %28 to i64
  %31 = getelementptr inbounds ptr, ptr %27, i64 %30
  store ptr %26, ptr %31, align 8, !tbaa !11
  store i32 0, ptr %4, align 4
  store i32 1, ptr %9, align 4
  br label %32

32:                                               ; preds = %25, %22
  call void @llvm.lifetime.end.p0(i64 8, ptr %8) #9
  %33 = load i32, ptr %4, align 4
  ret i32 %33
}