; Function Attrs: nounwind uwtable
define internal range(i32 -1, 1) i32 @label_cb(ptr noundef readonly captures(none) %0, ptr noundef %1, i32 noundef %2) #0 {
  %4 = getelementptr inbounds nuw i8, ptr %0, i64 16
  %5 = load ptr, ptr %4, align 8, !tbaa !15
  %.not = icmp eq i32 %2, 0
  br i1 %.not, label %7, label %6

6:                                                ; preds = %3
  tail call void (ptr, i32, ptr, ...) @BUG_fl(ptr noundef nonnull @.str.35, i32 noundef 27, ptr noundef nonnull @.str.36) #13
  unreachable

7:                                                ; preds = %3
  %8 = load i32, ptr @label_cb.label_count, align 4, !tbaa !4
  %9 = icmp sgt i32 %8, 2
  br i1 %9, label %10, label %12

10:                                               ; preds = %7
  %11 = tail call i32 (ptr, ...) @error(ptr noundef nonnull @.str.38) #12
  br label %16

12:                                               ; preds = %7
  %13 = add nuw nsw i32 %8, 1
  store i32 %13, ptr @label_cb.label_count, align 4, !tbaa !4
  %14 = zext nneg i32 %8 to i64
  %15 = getelementptr inbounds nuw ptr, ptr %5, i64 %14
  store ptr %1, ptr %15, align 8, !tbaa !36
  br label %16

16:                                               ; preds = %12, %10
  %.0 = phi i32 [ -1, %10 ], [ 0, %12 ]
  ret i32 %.0
}